
P8a.elf:     file format elf32-avr

Sections:
Idx Name          Size      VMA       LMA       File off  Algn
  0 .data         00000052  00800200  00000278  000002ec  2**0
                  CONTENTS, ALLOC, LOAD, DATA
  1 .text         00000278  00000000  00000000  00000074  2**1
                  CONTENTS, ALLOC, LOAD, READONLY, CODE
  2 .comment      00000030  00000000  00000000  0000033e  2**0
                  CONTENTS, READONLY
  3 .note.gnu.avr.deviceinfo 00000040  00000000  00000000  00000370  2**2
                  CONTENTS, READONLY
  4 .debug_aranges 00000070  00000000  00000000  000003b0  2**0
                  CONTENTS, READONLY, DEBUGGING
  5 .debug_info   0000109a  00000000  00000000  00000420  2**0
                  CONTENTS, READONLY, DEBUGGING
  6 .debug_abbrev 00000cbf  00000000  00000000  000014ba  2**0
                  CONTENTS, READONLY, DEBUGGING
  7 .debug_line   00000585  00000000  00000000  00002179  2**0
                  CONTENTS, READONLY, DEBUGGING
  8 .debug_frame  00000120  00000000  00000000  00002700  2**2
                  CONTENTS, READONLY, DEBUGGING
  9 .debug_str    0000059a  00000000  00000000  00002820  2**0
                  CONTENTS, READONLY, DEBUGGING
 10 .debug_loc    000005ed  00000000  00000000  00002dba  2**0
                  CONTENTS, READONLY, DEBUGGING
 11 .debug_ranges 00000060  00000000  00000000  000033a7  2**0
                  CONTENTS, READONLY, DEBUGGING

Disassembly of section .text:

00000000 <__vectors>:
   0:	71 c0       	rjmp	.+226    	; 0xe4 <__ctors_end>
   2:	00 00       	nop
   4:	86 c0       	rjmp	.+268    	; 0x112 <__bad_interrupt>
   6:	00 00       	nop
   8:	84 c0       	rjmp	.+264    	; 0x112 <__bad_interrupt>
   a:	00 00       	nop
   c:	82 c0       	rjmp	.+260    	; 0x112 <__bad_interrupt>
   e:	00 00       	nop
  10:	80 c0       	rjmp	.+256    	; 0x112 <__bad_interrupt>
  12:	00 00       	nop
  14:	7e c0       	rjmp	.+252    	; 0x112 <__bad_interrupt>
  16:	00 00       	nop
  18:	7c c0       	rjmp	.+248    	; 0x112 <__bad_interrupt>
  1a:	00 00       	nop
  1c:	7a c0       	rjmp	.+244    	; 0x112 <__bad_interrupt>
  1e:	00 00       	nop
  20:	78 c0       	rjmp	.+240    	; 0x112 <__bad_interrupt>
  22:	00 00       	nop
  24:	76 c0       	rjmp	.+236    	; 0x112 <__bad_interrupt>
  26:	00 00       	nop
  28:	74 c0       	rjmp	.+232    	; 0x112 <__bad_interrupt>
  2a:	00 00       	nop
  2c:	72 c0       	rjmp	.+228    	; 0x112 <__bad_interrupt>
  2e:	00 00       	nop
  30:	70 c0       	rjmp	.+224    	; 0x112 <__bad_interrupt>
  32:	00 00       	nop
  34:	6e c0       	rjmp	.+220    	; 0x112 <__bad_interrupt>
  36:	00 00       	nop
  38:	6c c0       	rjmp	.+216    	; 0x112 <__bad_interrupt>
  3a:	00 00       	nop
  3c:	6a c0       	rjmp	.+212    	; 0x112 <__bad_interrupt>
  3e:	00 00       	nop
  40:	68 c0       	rjmp	.+208    	; 0x112 <__bad_interrupt>
  42:	00 00       	nop
  44:	66 c0       	rjmp	.+204    	; 0x112 <__bad_interrupt>
  46:	00 00       	nop
  48:	64 c0       	rjmp	.+200    	; 0x112 <__bad_interrupt>
  4a:	00 00       	nop
  4c:	62 c0       	rjmp	.+196    	; 0x112 <__bad_interrupt>
  4e:	00 00       	nop
  50:	60 c0       	rjmp	.+192    	; 0x112 <__bad_interrupt>
  52:	00 00       	nop
  54:	5e c0       	rjmp	.+188    	; 0x112 <__bad_interrupt>
  56:	00 00       	nop
  58:	5c c0       	rjmp	.+184    	; 0x112 <__bad_interrupt>
  5a:	00 00       	nop
  5c:	5a c0       	rjmp	.+180    	; 0x112 <__bad_interrupt>
  5e:	00 00       	nop
  60:	58 c0       	rjmp	.+176    	; 0x112 <__bad_interrupt>
  62:	00 00       	nop
  64:	56 c0       	rjmp	.+172    	; 0x112 <__bad_interrupt>
  66:	00 00       	nop
  68:	54 c0       	rjmp	.+168    	; 0x112 <__bad_interrupt>
  6a:	00 00       	nop
  6c:	52 c0       	rjmp	.+164    	; 0x112 <__bad_interrupt>
  6e:	00 00       	nop
  70:	50 c0       	rjmp	.+160    	; 0x112 <__bad_interrupt>
  72:	00 00       	nop
  74:	4e c0       	rjmp	.+156    	; 0x112 <__bad_interrupt>
  76:	00 00       	nop
  78:	4c c0       	rjmp	.+152    	; 0x112 <__bad_interrupt>
  7a:	00 00       	nop
  7c:	4a c0       	rjmp	.+148    	; 0x112 <__bad_interrupt>
  7e:	00 00       	nop
  80:	48 c0       	rjmp	.+144    	; 0x112 <__bad_interrupt>
  82:	00 00       	nop
  84:	46 c0       	rjmp	.+140    	; 0x112 <__bad_interrupt>
  86:	00 00       	nop
  88:	44 c0       	rjmp	.+136    	; 0x112 <__bad_interrupt>
  8a:	00 00       	nop
  8c:	42 c0       	rjmp	.+132    	; 0x112 <__bad_interrupt>
  8e:	00 00       	nop
  90:	40 c0       	rjmp	.+128    	; 0x112 <__bad_interrupt>
  92:	00 00       	nop
  94:	3e c0       	rjmp	.+124    	; 0x112 <__bad_interrupt>
  96:	00 00       	nop
  98:	3c c0       	rjmp	.+120    	; 0x112 <__bad_interrupt>
  9a:	00 00       	nop
  9c:	3a c0       	rjmp	.+116    	; 0x112 <__bad_interrupt>
  9e:	00 00       	nop
  a0:	38 c0       	rjmp	.+112    	; 0x112 <__bad_interrupt>
  a2:	00 00       	nop
  a4:	36 c0       	rjmp	.+108    	; 0x112 <__bad_interrupt>
  a6:	00 00       	nop
  a8:	34 c0       	rjmp	.+104    	; 0x112 <__bad_interrupt>
  aa:	00 00       	nop
  ac:	32 c0       	rjmp	.+100    	; 0x112 <__bad_interrupt>
  ae:	00 00       	nop
  b0:	30 c0       	rjmp	.+96     	; 0x112 <__bad_interrupt>
  b2:	00 00       	nop
  b4:	2e c0       	rjmp	.+92     	; 0x112 <__bad_interrupt>
  b6:	00 00       	nop
  b8:	2c c0       	rjmp	.+88     	; 0x112 <__bad_interrupt>
  ba:	00 00       	nop
  bc:	2a c0       	rjmp	.+84     	; 0x112 <__bad_interrupt>
  be:	00 00       	nop
  c0:	28 c0       	rjmp	.+80     	; 0x112 <__bad_interrupt>
  c2:	00 00       	nop
  c4:	26 c0       	rjmp	.+76     	; 0x112 <__bad_interrupt>
  c6:	00 00       	nop
  c8:	24 c0       	rjmp	.+72     	; 0x112 <__bad_interrupt>
  ca:	00 00       	nop
  cc:	22 c0       	rjmp	.+68     	; 0x112 <__bad_interrupt>
  ce:	00 00       	nop
  d0:	20 c0       	rjmp	.+64     	; 0x112 <__bad_interrupt>
  d2:	00 00       	nop
  d4:	1e c0       	rjmp	.+60     	; 0x112 <__bad_interrupt>
  d6:	00 00       	nop
  d8:	1c c0       	rjmp	.+56     	; 0x112 <__bad_interrupt>
  da:	00 00       	nop
  dc:	1a c0       	rjmp	.+52     	; 0x112 <__bad_interrupt>
  de:	00 00       	nop
  e0:	18 c0       	rjmp	.+48     	; 0x112 <__bad_interrupt>
	...

000000e4 <__ctors_end>:
  e4:	11 24       	eor	r1, r1
  e6:	1f be       	out	0x3f, r1	; 63
  e8:	cf ef       	ldi	r28, 0xFF	; 255
  ea:	d1 e2       	ldi	r29, 0x21	; 33
  ec:	de bf       	out	0x3e, r29	; 62
  ee:	cd bf       	out	0x3d, r28	; 61
  f0:	00 e0       	ldi	r16, 0x00	; 0
  f2:	0c bf       	out	0x3c, r16	; 60

000000f4 <__do_copy_data>:
  f4:	12 e0       	ldi	r17, 0x02	; 2
  f6:	a0 e0       	ldi	r26, 0x00	; 0
  f8:	b2 e0       	ldi	r27, 0x02	; 2
  fa:	e8 e7       	ldi	r30, 0x78	; 120
  fc:	f2 e0       	ldi	r31, 0x02	; 2
  fe:	00 e0       	ldi	r16, 0x00	; 0
 100:	0b bf       	out	0x3b, r16	; 59
 102:	02 c0       	rjmp	.+4      	; 0x108 <__do_copy_data+0x14>
 104:	07 90       	elpm	r0, Z+
 106:	0d 92       	st	X+, r0
 108:	a2 35       	cpi	r26, 0x52	; 82
 10a:	b1 07       	cpc	r27, r17
 10c:	d9 f7       	brne	.-10     	; 0x104 <__do_copy_data+0x10>
 10e:	76 d0       	rcall	.+236    	; 0x1fc <main>
 110:	b1 c0       	rjmp	.+354    	; 0x274 <_exit>

00000112 <__bad_interrupt>:
 112:	76 cf       	rjmp	.-276    	; 0x0 <__vectors>

00000114 <UART0_Init>:
			*str--='\0';
			i--;
		}
	}while(c != 13);
	*str = '\0';
}
 114:	22 e0       	ldi	r18, 0x02	; 2
 116:	20 93 c0 00 	sts	0x00C0, r18	; 0x8000c0 <__TEXT_REGION_LENGTH__+0x7000c0>
 11a:	2b ef       	ldi	r18, 0xFB	; 251
 11c:	20 93 c1 00 	sts	0x00C1, r18	; 0x8000c1 <__TEXT_REGION_LENGTH__+0x7000c1>
 120:	26 e0       	ldi	r18, 0x06	; 6
 122:	20 93 c2 00 	sts	0x00C2, r18	; 0x8000c2 <__TEXT_REGION_LENGTH__+0x7000c2>
 126:	89 2b       	or	r24, r25
 128:	39 f4       	brne	.+14     	; 0x138 <UART0_Init+0x24>
 12a:	8f ec       	ldi	r24, 0xCF	; 207
 12c:	90 e0       	ldi	r25, 0x00	; 0
 12e:	90 93 c5 00 	sts	0x00C5, r25	; 0x8000c5 <__TEXT_REGION_LENGTH__+0x7000c5>
 132:	80 93 c4 00 	sts	0x00C4, r24	; 0x8000c4 <__TEXT_REGION_LENGTH__+0x7000c4>
 136:	08 95       	ret
 138:	87 e6       	ldi	r24, 0x67	; 103
 13a:	90 e0       	ldi	r25, 0x00	; 0
 13c:	90 93 c5 00 	sts	0x00C5, r25	; 0x8000c5 <__TEXT_REGION_LENGTH__+0x7000c5>
 140:	80 93 c4 00 	sts	0x00C4, r24	; 0x8000c4 <__TEXT_REGION_LENGTH__+0x7000c4>
 144:	08 95       	ret

00000146 <UART0_getchar>:
 146:	e0 ec       	ldi	r30, 0xC0	; 192
 148:	f0 e0       	ldi	r31, 0x00	; 0
 14a:	80 81       	ld	r24, Z
 14c:	88 23       	and	r24, r24
 14e:	ec f7       	brge	.-6      	; 0x14a <UART0_getchar+0x4>
 150:	80 91 c6 00 	lds	r24, 0x00C6	; 0x8000c6 <__TEXT_REGION_LENGTH__+0x7000c6>
 154:	08 95       	ret

00000156 <UART0_putchar>:
 156:	e0 ec       	ldi	r30, 0xC0	; 192
 158:	f0 e0       	ldi	r31, 0x00	; 0
 15a:	90 81       	ld	r25, Z
 15c:	95 ff       	sbrs	r25, 5
 15e:	fd cf       	rjmp	.-6      	; 0x15a <UART0_putchar+0x4>
 160:	80 93 c6 00 	sts	0x00C6, r24	; 0x8000c6 <__TEXT_REGION_LENGTH__+0x7000c6>
 164:	08 95       	ret

00000166 <UART0_puts>:
void UART0_puts(char *str)
{
 166:	cf 93       	push	r28
 168:	df 93       	push	r29
 16a:	ec 01       	movw	r28, r24
	while(*str)
 16c:	88 81       	ld	r24, Y
 16e:	88 23       	and	r24, r24
 170:	29 f0       	breq	.+10     	; 0x17c <UART0_puts+0x16>
	{
		UART0_putchar(*str++);
 172:	21 96       	adiw	r28, 0x01	; 1
	}while(c != 13);
	*str = '\0';
}
void UART0_puts(char *str)
{
	while(*str)
 174:	f0 df       	rcall	.-32     	; 0x156 <UART0_putchar>
 176:	89 91       	ld	r24, Y+
 178:	81 11       	cpse	r24, r1
	{
		UART0_putchar(*str++);
	}
}
 17a:	fc cf       	rjmp	.-8      	; 0x174 <UART0_puts+0xe>
 17c:	df 91       	pop	r29
 17e:	cf 91       	pop	r28
 180:	08 95       	ret

00000182 <itoa>:
void itoa(char *str, uint16_t number, uint8_t base)
{
 182:	0f 93       	push	r16
 184:	1f 93       	push	r17
 186:	cf 93       	push	r28
 188:	df 93       	push	r29
 18a:	fc 01       	movw	r30, r24
 18c:	9b 01       	movw	r18, r22
	unsigned int cociente, residuo,count = 0, i=0, j;
 18e:	c0 e0       	ldi	r28, 0x00	; 0
 190:	d0 e0       	ldi	r29, 0x00	; 0
	char c;
	cociente = number;
	do{
		residuo = cociente%base;
 192:	04 2f       	mov	r16, r20
 194:	10 e0       	ldi	r17, 0x00	; 0
 196:	02 c0       	rjmp	.+4      	; 0x19c <itoa+0x1a>
			c = residuo + 55;
		}else{
			c = residuo + '0';
		}
		*str++ = c;
		count++;
 198:	ec 01       	movw	r28, r24
		{
			c = residuo + 55;
		}else{
			c = residuo + '0';
		}
		*str++ = c;
 19a:	fd 01       	movw	r30, r26
{
	unsigned int cociente, residuo,count = 0, i=0, j;
	char c;
	cociente = number;
	do{
		residuo = cociente%base;
 19c:	c9 01       	movw	r24, r18
 19e:	b8 01       	movw	r22, r16
 1a0:	55 d0       	rcall	.+170    	; 0x24c <__udivmodhi4>
		cociente = cociente/base;
 1a2:	26 2f       	mov	r18, r22
 1a4:	37 2f       	mov	r19, r23
		if(residuo > 9)
 1a6:	8a 30       	cpi	r24, 0x0A	; 10
 1a8:	91 05       	cpc	r25, r1
 1aa:	10 f0       	brcs	.+4      	; 0x1b0 <itoa+0x2e>
		{
			c = residuo + 55;
 1ac:	89 5c       	subi	r24, 0xC9	; 201
 1ae:	01 c0       	rjmp	.+2      	; 0x1b2 <itoa+0x30>
		}else{
			c = residuo + '0';
 1b0:	80 5d       	subi	r24, 0xD0	; 208
		}
		*str++ = c;
 1b2:	df 01       	movw	r26, r30
 1b4:	11 96       	adiw	r26, 0x01	; 1
 1b6:	80 83       	st	Z, r24
		count++;
 1b8:	ce 01       	movw	r24, r28
 1ba:	01 96       	adiw	r24, 0x01	; 1
	}while( cociente != 0 );	
 1bc:	21 15       	cp	r18, r1
 1be:	31 05       	cpc	r19, r1
 1c0:	59 f7       	brne	.-42     	; 0x198 <itoa+0x16>
	*str= '\0';
 1c2:	11 82       	std	Z+1, r1	; 0x01
	str -=count;
 1c4:	a8 1b       	sub	r26, r24
 1c6:	b9 0b       	sbc	r27, r25
	j = count -1;
	
	while(i < j)
 1c8:	20 97       	sbiw	r28, 0x00	; 0
 1ca:	99 f0       	breq	.+38     	; 0x1f2 <itoa+0x70>
 1cc:	fd 01       	movw	r30, r26
 1ce:	a8 0f       	add	r26, r24
 1d0:	b9 1f       	adc	r27, r25
 1d2:	80 e0       	ldi	r24, 0x00	; 0
 1d4:	90 e0       	ldi	r25, 0x00	; 0
	{
		if( *(str+i) != *(str+j))
 1d6:	20 81       	ld	r18, Z
 1d8:	3e 91       	ld	r19, -X
 1da:	23 17       	cp	r18, r19
 1dc:	11 f0       	breq	.+4      	; 0x1e2 <itoa+0x60>
		{
			c = *(str+i);
			*(str+i) = *(str+j);
 1de:	30 83       	st	Z, r19
			*(str+j) = c;	
 1e0:	2c 93       	st	X, r18
		}
		i++;
 1e2:	01 96       	adiw	r24, 0x01	; 1
 1e4:	31 96       	adiw	r30, 0x01	; 1
	}while( cociente != 0 );	
	*str= '\0';
	str -=count;
	j = count -1;
	
	while(i < j)
 1e6:	9e 01       	movw	r18, r28
 1e8:	28 1b       	sub	r18, r24
 1ea:	39 0b       	sbc	r19, r25
 1ec:	82 17       	cp	r24, r18
 1ee:	93 07       	cpc	r25, r19
 1f0:	90 f3       	brcs	.-28     	; 0x1d6 <itoa+0x54>
			c = **strAux;
			**strAux++ = *str;
			*str-- =  c;
		}
	}*/
}	
 1f2:	df 91       	pop	r29
 1f4:	cf 91       	pop	r28
 1f6:	1f 91       	pop	r17
 1f8:	0f 91       	pop	r16
 1fa:	08 95       	ret

000001fc <main>:
void UART0_putchar(char data);
void UART0_puts(char *str);
void inMTTY();
 
int main(void) 
{ 
 1fc:	cf 93       	push	r28
 1fe:	df 93       	push	r29
 200:	cd b7       	in	r28, 0x3d	; 61
 202:	de b7       	in	r29, 0x3e	; 62
 204:	64 97       	sbiw	r28, 0x14	; 20
 206:	0f b6       	in	r0, 0x3f	; 63
 208:	f8 94       	cli
 20a:	de bf       	out	0x3e, r29	; 62
 20c:	0f be       	out	0x3f, r0	; 63
 20e:	cd bf       	out	0x3d, r28	; 61
	char cad[20];
	//char numcad[10];
	uint16_t num;
	UART0_Init(0);
 210:	80 e0       	ldi	r24, 0x00	; 0
 212:	90 e0       	ldi	r25, 0x00	; 0
 214:	7f df       	rcall	.-258    	; 0x114 <UART0_Init>
	UART0_puts("\n\rUniversidad Autonoma de Baja California\n\r Practica 8a");
 216:	80 e0       	ldi	r24, 0x00	; 0
 218:	92 e0       	ldi	r25, 0x02	; 2
	UART0_getchar();
 21a:	a5 df       	rcall	.-182    	; 0x166 <UART0_puts>
	UART0_puts("\n\rIntroduce un número:\n\r");
 21c:	94 df       	rcall	.-216    	; 0x146 <UART0_getchar>
 21e:	88 e3       	ldi	r24, 0x38	; 56
 220:	92 e0       	ldi	r25, 0x02	; 2
 222:	a1 df       	rcall	.-190    	; 0x166 <UART0_puts>
	//UART0_gets(cad);
	//UART0_puts(cad);
	itoa(cad,123,16);
 224:	40 e1       	ldi	r20, 0x10	; 16
 226:	6b e7       	ldi	r22, 0x7B	; 123
 228:	70 e0       	ldi	r23, 0x00	; 0
 22a:	ce 01       	movw	r24, r28
 22c:	01 96       	adiw	r24, 0x01	; 1
	UART0_puts(cad);
 22e:	a9 df       	rcall	.-174    	; 0x182 <itoa>
 230:	ce 01       	movw	r24, r28
 232:	01 96       	adiw	r24, 0x01	; 1
 234:	98 df       	rcall	.-208    	; 0x166 <UART0_puts>
	UART0_puts(cad);
	itoa(cad,num,2);
	UART0_puts("\n\rBin:");
	UART0_puts(cad);
	*/
}
 236:	80 e0       	ldi	r24, 0x00	; 0
 238:	90 e0       	ldi	r25, 0x00	; 0
 23a:	64 96       	adiw	r28, 0x14	; 20
 23c:	0f b6       	in	r0, 0x3f	; 63
 23e:	f8 94       	cli
 240:	de bf       	out	0x3e, r29	; 62
 242:	0f be       	out	0x3f, r0	; 63
 244:	cd bf       	out	0x3d, r28	; 61
 246:	df 91       	pop	r29
 248:	cf 91       	pop	r28
 24a:	08 95       	ret

0000024c <__udivmodhi4>:
 24c:	aa 1b       	sub	r26, r26
 24e:	bb 1b       	sub	r27, r27
 250:	51 e1       	ldi	r21, 0x11	; 17
 252:	07 c0       	rjmp	.+14     	; 0x262 <__udivmodhi4_ep>

00000254 <__udivmodhi4_loop>:
 254:	aa 1f       	adc	r26, r26
 256:	bb 1f       	adc	r27, r27
 258:	a6 17       	cp	r26, r22
 25a:	b7 07       	cpc	r27, r23
 25c:	10 f0       	brcs	.+4      	; 0x262 <__udivmodhi4_ep>
 25e:	a6 1b       	sub	r26, r22
 260:	b7 0b       	sbc	r27, r23

00000262 <__udivmodhi4_ep>:
 262:	88 1f       	adc	r24, r24
 264:	99 1f       	adc	r25, r25
 266:	5a 95       	dec	r21
 268:	a9 f7       	brne	.-22     	; 0x254 <__udivmodhi4_loop>
 26a:	80 95       	com	r24
 26c:	90 95       	com	r25
 26e:	bc 01       	movw	r22, r24
 270:	cd 01       	movw	r24, r26
 272:	08 95       	ret

00000274 <_exit>:
 274:	f8 94       	cli

00000276 <__stop_program>:
 276:	ff cf       	rjmp	.-2      	; 0x276 <__stop_program>
